Certificate:
    Data:
        Version: 3 (0x2)
        Serial Number:
            c1:40:ae:d4:4a:65:d4:34
        Signature Algorithm: sha1WithRSAEncryption
        Issuer: C=AU, ST=Some-State, O=Internet Widgits Pty Ltd
        Validity
            Not Before: Mar 29 15:52:59 2012 GMT
            Not After : Apr 28 15:52:59 2012 GMT
        Subject: C=AU, ST=Some-State, O=Internet Widgits Pty Ltd
        Subject Public Key Info:
            Public Key Algorithm: rsaEncryption
                Public-Key: (1024 bit)
                Modulus:
                    00:ea:0a:23:cd:64:b9:6d:d3:f4:6c:5a:d4:02:ce:
                    01:79:9b:fb:e8:41:2a:d3:5d:da:d5:48:a4:5d:37:
                    b2:18:55:87:71:55:24:8b:be:8f:fb:19:14:95:f0:
                    cf:41:bb:29:3d:59:80:9f:13:29:f3:b0:4f:41:d6:
                    65:54:44:55:95:ac:61:f8:bb:29:d7:4d:cb:9c:3b:
                    4d:e5:4b:bc:fb:08:8e:31:60:0f:3d:ce:46:23:3e:
                    aa:90:15:f3:59:54:b0:fc:50:7d:9a:05:f6:9a:fd:
                    73:e7:ea:f0:5b:2a:03:f0:c4:aa:15:f5:23:11:57:
                    eb:f5:83:71:89:5a:77:aa:cb
                Exponent: 65537 (0x10001)
        X509v3 extensions:
            X509v3 Subject Key Identifier: 
                E7:1C:2C:69:D1:DE:59:89:44:4C:F5:B9:9F:2F:97:C6:45:4D:2A:B0
            X509v3 Authority Key Identifier: 
                keyid:E7:1C:2C:69:D1:DE:59:89:44:4C:F5:B9:9F:2F:97:C6:45:4D:2A:B0

            X509v3 Basic Constraints: 
                CA:TRUE
    Signature Algorithm: sha1WithRSAEncryption
        08:0c:55:2a:3c:ee:2c:d3:03:8a:dd:82:2b:48:3d:fc:ba:56:
        b2:73:6a:bb:56:78:45:22:9c:7b:70:8b:90:3e:89:e7:b4:33:
        38:5f:f5:ae:36:c4:d8:cb:74:19:e3:9c:e1:59:bb:1f:44:29:
        c4:9d:e3:1a:a3:db:70:eb:a7:3b:27:b0:19:a2:84:a4:79:72:
        70:89:01:6a:e3:e5:bf:57:4f:50:b8:b9:95:e0:2c:a9:43:4a:
        80:7c:0a:2f:f0:3e:2c:eb:39:8f:05:af:6d:db:3f:ff:3c:3d:
        32:29:4a:17:51:fc:0b:e1:e9:e8:21:8f:2d:c4:c5:d9:41:43:
        9d:4e
-----BEGIN CERTIFICATE-----
MIICWDCCAcGgAwIBAgIJAMFArtRKZdQ0MA0GCSqGSIb3DQEBBQUAMEUxCzAJBgNV
BAYTAkFVMRMwEQYDVQQIDApTb21lLVN0YXRlMSEwHwYDVQQKDBhJbnRlcm5ldCBX
aWRnaXRzIFB0eSBMdGQwHhcNMTIwMzI5MTU1MjU5WhcNMTIwNDI4MTU1MjU5WjBF
MQswCQYDVQQGEwJBVTETMBEGA1UECAwKU29tZS1TdGF0ZTEhMB8GA1UECgwYSW50
ZXJuZXQgV2lkZ2l0cyBQdHkgTHRkMIGfMA0GCSqGSIb3DQEBAQUAA4GNADCBiQKB
gQDqCiPNZLlt0/RsWtQCzgF5m/voQSrTXdrVSKRdN7IYVYdxVSSLvo/7GRSV8M9B
uyk9WYCfEynzsE9B1mVURFWVrGH4uynXTcucO03lS7z7CI4xYA89zkYjPqqQFfNZ
VLD8UH2aBfaa/XPn6vBbKgPwxKoV9SMRV+v1g3GJWneqywIDAQABo1AwTjAdBgNV
HQ4EFgQU5xwsadHeWYlETPW5ny+XxkVNKrAwHwYDVR0jBBgwFoAU5xwsadHeWYlE
TPW5ny+XxkVNKrAwDAYDVR0TBAUwAwEB/zANBgkqhkiG9w0BAQUFAAOBgQAIDFUq
PO4s0wOK3YIrSD38ulayc2q7VnhFIpx7cIuQPonntDM4X/WuNsTYy3QZ45zhWbsf
RCnEneMao9tw66c7J7AZooSkeXJwiQFq4+W/V09QuLmV4CypQ0qAfAov8D4s6zmP
Ba9t2z//PD0yKUoXUfwL4enoIY8txMXZQUOdTg==
-----END CERTIFICATE-----
